; Function Attrs: mustprogress nounwind uwtable
define hidden void @_ZN19ClassPathImageEntry12close_jimageEv(ptr noundef nonnull align 8 dereferenceable(24) %0) unnamed_addr #0 align 2 {
  %2 = load ptr, ptr %0, align 8
  %3 = getelementptr inbounds i8, ptr %2, i64 48
  %4 = load ptr, ptr %3, align 8
  %5 = tail call noundef ptr %4(ptr noundef nonnull align 8 dereferenceable(24) %0) #20
  %.not = icmp eq ptr %5, null
  br i1 %.not, label %12, label %6

6:                                                ; preds = %1
  %7 = load ptr, ptr @_ZL11JImageClose, align 8
  %8 = load ptr, ptr %0, align 8
  %9 = getelementptr inbounds i8, ptr %8, i64 48
  %10 = load ptr, ptr %9, align 8
  %11 = tail call noundef ptr %10(ptr noundef nonnull align 8 dereferenceable(24) %0) #20
  tail call void %7(ptr noundef %11) #20
  store ptr null, ptr @_ZL11JImage_file, align 8
  br label %12

12:                                               ; preds = %6, %1
  ret void
}